; Function Attrs: mustprogress nounwind uwtable
define internal fastcc void @_ZN6hermes12_GLOBAL__N_15GenJS5visitEPNS_6ESTree17ClassPropertyNodeE(ptr noundef nonnull align 8 captures(none) dereferenceable(16) %this, ptr noundef readonly captures(none) %node) unnamed_addr #0 align 2 {
entry:
  %_static = getelementptr inbounds nuw i8, ptr %node, i64 65
  %0 = load i8, ptr %_static, align 1
  %tobool = trunc i8 %0 to i1
  %_computed = getelementptr inbounds nuw i8, ptr %node, i64 64
  %1 = load i8, ptr %_computed, align 8
  %tobool2 = trunc i8 %1 to i1
  %_key = getelementptr inbounds nuw i8, ptr %node, i64 48
  %2 = load ptr, ptr %_key, align 8
  %_value = getelementptr inbounds nuw i8, ptr %node, i64 56
  %3 = load ptr, ptr %_value, align 8
  br i1 %tobool, label %if.then.i, label %if.end.i

if.then.i:                                        ; preds = %entry
  %4 = load ptr, ptr %this, align 8
  %OutBufEnd.i5.i29 = getelementptr inbounds nuw i8, ptr %4, i64 16
  %5 = load ptr, ptr %OutBufEnd.i5.i29, align 8
  %OutBufCur.i6.i30 = getelementptr inbounds nuw i8, ptr %4, i64 24
  %6 = load ptr, ptr %OutBufCur.i6.i30, align 8
  %sub.ptr.lhs.cast.i7.i31 = ptrtoint ptr %5 to i64
  %sub.ptr.rhs.cast.i8.i32 = ptrtoint ptr %6 to i64
  %sub.ptr.sub.i9.i33 = sub i64 %sub.ptr.lhs.cast.i7.i31, %sub.ptr.rhs.cast.i8.i32
  %cmp.i.i34 = icmp ult i64 %sub.ptr.sub.i9.i33, 7
  br i1 %cmp.i.i34, label %if.then.i.i40, label %if.then4.i.i37

if.then.i.i40:                                    ; preds = %if.then.i
  %call3.i.i41 = tail call noundef nonnull align 8 dereferenceable(36) ptr @_ZN4llvh11raw_ostream5writeEPKcm(ptr noundef nonnull align 8 dereferenceable(36) %4, ptr noundef nonnull @.str.314, i64 noundef 7) #12
  br label %if.end.i

if.then4.i.i37:                                   ; preds = %if.then.i
  tail call void @llvm.memcpy.p0.p0.i64(ptr noundef nonnull align 1 dereferenceable(7) %6, ptr noundef nonnull align 1 dereferenceable(7) @.str.314, i64 7, i1 false)
  %7 = load ptr, ptr %OutBufCur.i6.i30, align 8
  %add.ptr.i.i38 = getelementptr inbounds nuw i8, ptr %7, i64 7
  store ptr %add.ptr.i.i38, ptr %OutBufCur.i6.i30, align 8
  br label %if.end.i

if.end.i:                                         ; preds = %if.then4.i.i37, %if.then.i.i40, %entry
  br i1 %tobool2, label %if.then5.i, label %if.end8.i

if.then5.i:                                       ; preds = %if.end.i
  %8 = load ptr, ptr %this, align 8
  %OutBufCur.i19 = getelementptr inbounds nuw i8, ptr %8, i64 24
  %9 = load ptr, ptr %OutBufCur.i19, align 8
  %OutBufEnd.i20 = getelementptr inbounds nuw i8, ptr %8, i64 16
  %10 = load ptr, ptr %OutBufEnd.i20, align 8
  %cmp.not.i21 = icmp ult ptr %9, %10
  br i1 %cmp.not.i21, label %if.end.i25, label %if.then.i22

if.then.i22:                                      ; preds = %if.then5.i
  %call.i23 = tail call noundef nonnull align 8 dereferenceable(36) ptr @_ZN4llvh11raw_ostream5writeEh(ptr noundef nonnull align 8 dereferenceable(36) %8, i8 noundef zeroext 91) #12
  br label %if.then15.i

if.end.i25:                                       ; preds = %if.then5.i
  %incdec.ptr.i26 = getelementptr inbounds nuw i8, ptr %9, i64 1
  store ptr %incdec.ptr.i26, ptr %OutBufCur.i19, align 8
  store i8 91, ptr %9, align 1
  br label %if.then15.i

if.end8.i:                                        ; preds = %if.end.i
  tail call fastcc void @_ZN6hermes6ESTree24RecursiveVisitorDispatchINS_12_GLOBAL__N_15GenJSELb1EE5visitERS3_PNS0_4NodeES7_(ptr noundef nonnull align 8 dereferenceable(16) %this, ptr noundef %2)
  br label %if.end18.i

if.then15.i:                                      ; preds = %if.end.i25, %if.then.i22
  tail call fastcc void @_ZN6hermes6ESTree24RecursiveVisitorDispatchINS_12_GLOBAL__N_15GenJSELb1EE5visitERS3_PNS0_4NodeES7_(ptr noundef nonnull align 8 dereferenceable(16) %this, ptr noundef %2)
  %11 = load ptr, ptr %this, align 8
  %OutBufCur.i9 = getelementptr inbounds nuw i8, ptr %11, i64 24
  %12 = load ptr, ptr %OutBufCur.i9, align 8
  %OutBufEnd.i10 = getelementptr inbounds nuw i8, ptr %11, i64 16
  %13 = load ptr, ptr %OutBufEnd.i10, align 8
  %cmp.not.i11 = icmp ult ptr %12, %13
  br i1 %cmp.not.i11, label %if.end.i15, label %if.then.i12

if.then.i12:                                      ; preds = %if.then15.i
  %call.i13 = tail call noundef nonnull align 8 dereferenceable(36) ptr @_ZN4llvh11raw_ostream5writeEh(ptr noundef nonnull align 8 dereferenceable(36) %11, i8 noundef zeroext 93) #12
  br label %if.end18.i

if.end.i15:                                       ; preds = %if.then15.i
  %incdec.ptr.i16 = getelementptr inbounds nuw i8, ptr %12, i64 1
  store ptr %incdec.ptr.i16, ptr %OutBufCur.i9, align 8
  store i8 93, ptr %12, align 1
  br label %if.end18.i

if.end18.i:                                       ; preds = %if.end.i15, %if.then.i12, %if.end8.i
  %tobool19.not.i = icmp eq ptr %3, null
  br i1 %tobool19.not.i, label %_ZN6hermes12_GLOBAL__N_15GenJS18visitClassPropertyEbbbPNS_6ESTree4NodeES4_S4_.exit, label %if.then20.i

if.then20.i:                                      ; preds = %if.end18.i
  %14 = load ptr, ptr %this, align 8
  %OutBufEnd.i5.i = getelementptr inbounds nuw i8, ptr %14, i64 16
  %15 = load ptr, ptr %OutBufEnd.i5.i, align 8
  %OutBufCur.i6.i = getelementptr inbounds nuw i8, ptr %14, i64 24
  %16 = load ptr, ptr %OutBufCur.i6.i, align 8
  %sub.ptr.lhs.cast.i7.i = ptrtoint ptr %15 to i64
  %sub.ptr.rhs.cast.i8.i = ptrtoint ptr %16 to i64
  %sub.ptr.sub.i9.i = sub i64 %sub.ptr.lhs.cast.i7.i, %sub.ptr.rhs.cast.i8.i
  %cmp.i.i = icmp ult i64 %sub.ptr.sub.i9.i, 3
  br i1 %cmp.i.i, label %if.then.i.i, label %if.then4.i.i

if.then.i.i:                                      ; preds = %if.then20.i
  %call3.i.i = tail call noundef nonnull align 8 dereferenceable(36) ptr @_ZN4llvh11raw_ostream5writeEPKcm(ptr noundef nonnull align 8 dereferenceable(36) %14, ptr noundef nonnull @.str.308, i64 noundef 3) #12
  br label %_ZN4llvh11raw_ostreamlsEPKc.exit

if.then4.i.i:                                     ; preds = %if.then20.i
  tail call void @llvm.memcpy.p0.p0.i64(ptr noundef nonnull align 1 dereferenceable(3) %16, ptr noundef nonnull align 1 dereferenceable(3) @.str.308, i64 3, i1 false)
  %17 = load ptr, ptr %OutBufCur.i6.i, align 8
  %add.ptr.i.i = getelementptr inbounds nuw i8, ptr %17, i64 3
  store ptr %add.ptr.i.i, ptr %OutBufCur.i6.i, align 8
  br label %_ZN4llvh11raw_ostreamlsEPKc.exit

_ZN4llvh11raw_ostreamlsEPKc.exit:                 ; preds = %if.then.i.i, %if.then4.i.i
  tail call fastcc void @_ZN6hermes6ESTree24RecursiveVisitorDispatchINS_12_GLOBAL__N_15GenJSELb1EE5visitERS3_PNS0_4NodeES7_(ptr noundef nonnull align 8 dereferenceable(16) %this, ptr noundef nonnull %3)
  br label %_ZN6hermes12_GLOBAL__N_15GenJS18visitClassPropertyEbbbPNS_6ESTree4NodeES4_S4_.exit

_ZN6hermes12_GLOBAL__N_15GenJS18visitClassPropertyEbbbPNS_6ESTree4NodeES4_S4_.exit: ; preds = %if.end18.i, %_ZN4llvh11raw_ostreamlsEPKc.exit
  %18 = load ptr, ptr %this, align 8
  %OutBufCur.i = getelementptr inbounds nuw i8, ptr %18, i64 24
  %19 = load ptr, ptr %OutBufCur.i, align 8
  %OutBufEnd.i = getelementptr inbounds nuw i8, ptr %18, i64 16
  %20 = load ptr, ptr %OutBufEnd.i, align 8
  %cmp.not.i = icmp ult ptr %19, %20
  br i1 %cmp.not.i, label %if.end.i7, label %if.then.i5

if.then.i5:                                       ; preds = %_ZN6hermes12_GLOBAL__N_15GenJS18visitClassPropertyEbbbPNS_6ESTree4NodeES4_S4_.exit
  %call.i6 = tail call noundef nonnull align 8 dereferenceable(36) ptr @_ZN4llvh11raw_ostream5writeEh(ptr noundef nonnull align 8 dereferenceable(36) %18, i8 noundef zeroext 59) #12
  br label %_ZN4llvh11raw_ostreamlsEc.exit

if.end.i7:                                        ; preds = %_ZN6hermes12_GLOBAL__N_15GenJS18visitClassPropertyEbbbPNS_6ESTree4NodeES4_S4_.exit
  %incdec.ptr.i = getelementptr inbounds nuw i8, ptr %19, i64 1
  store ptr %incdec.ptr.i, ptr %OutBufCur.i, align 8
  store i8 59, ptr %19, align 1
  br label %_ZN4llvh11raw_ostreamlsEc.exit

_ZN4llvh11raw_ostreamlsEc.exit:                   ; preds = %if.then.i5, %if.end.i7
  ret void
}